; Function Attrs: mustprogress nounwind uwtable
define internal fastcc void @_ZN12_GLOBAL__N_111TypePrinter18printBuiltinBeforeEPKN5clang11BuiltinTypeERN4llvm11raw_ostreamE(ptr noundef nonnull align 8 dereferenceable(22) %0, ptr noundef nonnull %1, ptr noundef nonnull align 8 dereferenceable(48) %2) unnamed_addr #0 align 2 {
  %4 = tail call { ptr, i64 } @_ZNK5clang11BuiltinType7getNameERKNS_14PrintingPolicyE(ptr noundef nonnull align 16 dereferenceable(24) %1, ptr noundef nonnull align 8 dereferenceable(16) %0) #16
  %5 = extractvalue { ptr, i64 } %4, 0
  %6 = extractvalue { ptr, i64 } %4, 1
  %7 = getelementptr inbounds nuw i8, ptr %2, i64 24
  %8 = load ptr, ptr %7, align 8
  %9 = getelementptr inbounds nuw i8, ptr %2, i64 32
  %10 = load ptr, ptr %9, align 8
  %11 = ptrtoint ptr %8 to i64
  %12 = ptrtoint ptr %10 to i64
  %13 = sub i64 %11, %12
  %14 = icmp ugt i64 %6, %13
  br i1 %14, label %15, label %17

15:                                               ; preds = %3
  %16 = tail call noundef nonnull align 8 dereferenceable(48) ptr @_ZN4llvm11raw_ostream5writeEPKcm(ptr noundef nonnull align 8 dereferenceable(48) %2, ptr noundef %5, i64 noundef %6) #16
  br label %_ZN4llvm11raw_ostreamlsENS_9StringRefE.exit

17:                                               ; preds = %3
  %.not.i = icmp eq i64 %6, 0
  br i1 %.not.i, label %_ZN4llvm11raw_ostreamlsENS_9StringRefE.exit, label %18

18:                                               ; preds = %17
  tail call void @llvm.memcpy.p0.p0.i64(ptr align 1 %10, ptr align 1 %5, i64 %6, i1 false)
  %19 = load ptr, ptr %9, align 8
  %20 = getelementptr inbounds i8, ptr %19, i64 %6
  store ptr %20, ptr %9, align 8
  br label %_ZN4llvm11raw_ostreamlsENS_9StringRefE.exit

_ZN4llvm11raw_ostreamlsENS_9StringRefE.exit:      ; preds = %15, %17, %18
  %21 = getelementptr inbounds i8, ptr %0, i64 20
  %.val = load i8, ptr %21, align 4
  %22 = trunc i8 %.val to i1
  br i1 %22, label %_ZN12_GLOBAL__N_111TypePrinter22spaceBeforePlaceHolderERN4llvm11raw_ostreamE.exit, label %23

23:                                               ; preds = %_ZN4llvm11raw_ostreamlsENS_9StringRefE.exit
  %24 = load ptr, ptr %9, align 8
  %25 = load ptr, ptr %7, align 8
  %.not.i.i = icmp ult ptr %24, %25
  br i1 %.not.i.i, label %28, label %26

26:                                               ; preds = %23
  %27 = tail call noundef nonnull align 8 dereferenceable(48) ptr @_ZN4llvm11raw_ostream5writeEh(ptr noundef nonnull align 8 dereferenceable(48) %2, i8 noundef zeroext 32) #16
  br label %_ZN12_GLOBAL__N_111TypePrinter22spaceBeforePlaceHolderERN4llvm11raw_ostreamE.exit

28:                                               ; preds = %23
  %29 = getelementptr inbounds i8, ptr %24, i64 1
  store ptr %29, ptr %9, align 8
  store i8 32, ptr %24, align 1
  br label %_ZN12_GLOBAL__N_111TypePrinter22spaceBeforePlaceHolderERN4llvm11raw_ostreamE.exit

_ZN12_GLOBAL__N_111TypePrinter22spaceBeforePlaceHolderERN4llvm11raw_ostreamE.exit: ; preds = %_ZN4llvm11raw_ostreamlsENS_9StringRefE.exit, %26, %28
  ret void
}